###############################################################################
#
# IAR ELF Linker V7.10.1.6676/W32 for ARM                 01/Sep/2016  14:39:01
# Copyright 2007-2014 IAR Systems AB.
#
#    Output file  =  
#        D:\develop\hw_dr001\bootloader\IAR_STM32_BOOT\Debug\Exe\TC007_bootloader_OBD.out.tmp
#    Map file     =  
#        D:\develop\hw_dr001\bootloader\IAR_STM32_BOOT\Debug\List\TC007_bootloader_OBD.map
#    Command line =  
#        D:\develop\hw_dr001\bootloader\IAR_STM32_BOOT\Debug\Obj\common.o
#        D:\develop\hw_dr001\bootloader\IAR_STM32_BOOT\Debug\Obj\cortexm3_macro.o
#        D:\develop\hw_dr001\bootloader\IAR_STM32_BOOT\Debug\Obj\main.o
#        D:\develop\hw_dr001\bootloader\IAR_STM32_BOOT\Debug\Obj\spi_flash.o
#        D:\develop\hw_dr001\bootloader\IAR_STM32_BOOT\Debug\Obj\stm32f10x_flash.o
#        D:\develop\hw_dr001\bootloader\IAR_STM32_BOOT\Debug\Obj\stm32f10x_gpio.o
#        D:\develop\hw_dr001\bootloader\IAR_STM32_BOOT\Debug\Obj\stm32f10x_it.o
#        D:\develop\hw_dr001\bootloader\IAR_STM32_BOOT\Debug\Obj\stm32f10x_rcc.o
#        D:\develop\hw_dr001\bootloader\IAR_STM32_BOOT\Debug\Obj\stm32f10x_spi.o
#        D:\develop\hw_dr001\bootloader\IAR_STM32_BOOT\Debug\Obj\stm32f10x_usart.o
#        D:\develop\hw_dr001\bootloader\IAR_STM32_BOOT\Debug\Obj\stm32f10x_vector.o
#        D:\develop\hw_dr001\bootloader\IAR_STM32_BOOT\Debug\Obj\stm32f10x_wwdg.o
#        --redirect _Printf=_PrintfTiny --redirect _Scanf=_ScanfSmall -o
#        D:\develop\hw_dr001\bootloader\IAR_STM32_BOOT\Debug\Exe\TC007_bootloader_OBD.out.tmp
#        --map
#        D:\develop\hw_dr001\bootloader\IAR_STM32_BOOT\Debug\List\TC007_bootloader_OBD.map
#        --config
#        D:\develop\hw_dr001\bootloader\IAR_STM32_BOOT\..\bootloader_src\Linkfile\STM32F10x_FLASH.icf
#        --entry __iar_program_start --vfe
#
###############################################################################

*******************************************************************************
*** RUNTIME MODEL ATTRIBUTES
***

CppFlavor       = *
__SystemLibrary = DLib


*******************************************************************************
*** PLACEMENT SUMMARY
***

"A1":  place at 0x08000000 { ro section .intvec };
"P1":  place in [from 0x080000f0 to 0x08001fff] { ro };
"P2":  place in [from 0x20000000 to 0x20004fff] { rw, block CSTACK, block HEAP };

  Section            Kind        Address   Size  Object
  -------            ----        -------   ----  ------
"A1":                                      0xec
  .intvec            const    0x08000000   0xec  stm32f10x_vector.o [1]
                            - 0x080000ec   0xec

"P1":                                     0xd9c
  .text              ro code  0x080000f0  0x3c4  stm32f10x_flash.o [1]
  .text              ro code  0x080004b4  0x220  common.o [1]
  .text              ro code  0x080006d4   0x6e  cortexm3_macro.o [1]
  .text              ro code  0x08000742   0x2e  copy_init3.o [4]
  .text              ro code  0x08000770  0x220  spi_flash.o [1]
  .text              ro code  0x08000990   0xd8  stm32f10x_rcc.o [1]
  .text              ro code  0x08000a68   0x10  stm32f10x_wwdg.o [1]
  .text              ro code  0x08000a78   0xd4  stm32f10x_gpio.o [1]
  .text              ro code  0x08000b4c   0x78  stm32f10x_spi.o [1]
  .text              ro code  0x08000bc4  0x19c  main.o [1]
  .text              ro code  0x08000d60   0x68  stm32f10x_it.o [1]
  .text              ro code  0x08000dc8   0x28  data_init.o [4]
  .text              ro code  0x08000df0   0x22  zero_init3.o [4]
  .iar.init_table    const    0x08000e14   0x24  - Linker created -
  .text              ro code  0x08000e38   0x1a  cmain.o [4]
  .text              ro code  0x08000e52    0x4  low_level_init.o [3]
  .text              ro code  0x08000e56    0x4  exit.o [3]
  .text              ro code  0x08000e5c    0xa  cexit.o [4]
  .text              ro code  0x08000e68    0xc  XXexit.o [4]
  .text              ro code  0x08000e74    0xc  cstartup_M.o [4]
  .rodata            const    0x08000e80    0x0  zero_init3.o [4]
  .rodata            const    0x08000e80    0x0  copy_init3.o [4]
  Initializer bytes  ro data  0x08000e80    0xc  <for P2 s0>
                            - 0x08000e8c  0xd9c

"P2", part 1 of 3:                          0xc
  P2 s0                       0x20000000    0xc  <Init block>
    .data            inited   0x20000000    0x4  common.o [1]
    .data            inited   0x20000004    0x4  common.o [1]
    .data            inited   0x20000008    0x2  common.o [1]
    .data            inited   0x2000000a    0x1  common.o [1]
                            - 0x2000000c    0xc

"P2", part 2 of 3:                         0x24
  .bss               zero     0x2000000c    0x8  common.o [1]
  .bss               zero     0x20000014    0x4  common.o [1]
  .bss               zero     0x20000018    0x4  common.o [1]
  .bss               zero     0x2000001c    0x4  common.o [1]
  .bss               zero     0x20000020    0x4  common.o [1]
  .bss               zero     0x20000024    0x4  common.o [1]
  .bss               zero     0x20000028    0x4  common.o [1]
  .bss               zero     0x2000002c    0x4  common.o [1]
                            - 0x20000030   0x24

"P2", part 3 of 3:                        0x400
  CSTACK                      0x20000030  0x400  <Block>
    CSTACK           uninit   0x20000030  0x400  <Block tail>
                            - 0x20000430  0x400


*******************************************************************************
*** INIT TABLE
***

          Address     Size
          -------     ----
Zero (__iar_zero_init3)
    1 destination range, total size 0x24:
          0x2000000c  0x24

Copy (__iar_copy_init3)
    1 source range, total size 0xc (109% of destination):
          0x08000e80   0xc
    1 destination range, total size 0xb:
          0x20000000   0xb



*******************************************************************************
*** MODULE SUMMARY
***

    Module              ro code  ro data  rw data
    ------              -------  -------  -------
D:\develop\hw_dr001\bootloader\IAR_STM32_BOOT\Debug\Obj: [1]
    common.o                544       11       47
    cortexm3_macro.o        110
    main.o                  412
    spi_flash.o             544
    stm32f10x_flash.o       964
    stm32f10x_gpio.o        212
    stm32f10x_it.o          104
    stm32f10x_rcc.o         216
    stm32f10x_spi.o         120
    stm32f10x_vector.o               236
    stm32f10x_wwdg.o         16
    ---------------------------------------------
    Total:                3 242      247       47

command line: [2]
    ---------------------------------------------
    Total:

dl7M_tln.a: [3]
    exit.o                    4
    low_level_init.o          4
    ---------------------------------------------
    Total:                    8

rt7M_tl.a: [4]
    XXexit.o                 12
    cexit.o                  10
    cmain.o                  26
    copy_init3.o             46
    cstartup_M.o             12
    data_init.o              40
    zero_init3.o             34
    ---------------------------------------------
    Total:                  180

    Gaps                      4        2
    Linker created                    37    1 024
-------------------------------------------------
    Grand Total:          3 434      286    1 071


*******************************************************************************
*** ENTRY LIST
***

Entry                      Address   Size  Type      Object
-----                      -------   ----  ----      ------
?main                   0x08000e39         Code  Gb  cmain.o [4]
ADC_IRQHandler          0x08000d97    0x2  Code  Gb  stm32f10x_it.o [1]
BlockNbr                0x2000001c    0x4  Data  Gb  common.o [1]
BusFaultException       0x08000d67    0x2  Code  Gb  stm32f10x_it.o [1]
CAN_RX1_IRQHandler      0x08000d9d    0x2  Code  Gb  stm32f10x_it.o [1]
CAN_SCE_IRQHandler      0x08000d9f    0x2  Code  Gb  stm32f10x_it.o [1]
CSTACK$$Base            0x20000030          --   Gb  - Linker created -
CSTACK$$Limit           0x20000430          --   Gb  - Linker created -
DMAChannel1_IRQHandler  0x08000d89    0x2  Code  Gb  stm32f10x_it.o [1]
DMAChannel2_IRQHandler  0x08000d8b    0x2  Code  Gb  stm32f10x_it.o [1]
DMAChannel3_IRQHandler  0x08000d8d    0x2  Code  Gb  stm32f10x_it.o [1]
DMAChannel4_IRQHandler  0x08000d8f    0x2  Code  Gb  stm32f10x_it.o [1]
DMAChannel5_IRQHandler  0x08000d91    0x2  Code  Gb  stm32f10x_it.o [1]
DMAChannel6_IRQHandler  0x08000d93    0x2  Code  Gb  stm32f10x_it.o [1]
DMAChannel7_IRQHandler  0x08000d95    0x2  Code  Gb  stm32f10x_it.o [1]
DebugMonitor            0x08000d6b    0x2  Code  Gb  stm32f10x_it.o [1]
EXTI0_IRQHandler        0x08000d7f    0x2  Code  Gb  stm32f10x_it.o [1]
EXTI15_10_IRQHandler    0x08000dc3    0x2  Code  Gb  stm32f10x_it.o [1]
EXTI1_IRQHandler        0x08000d81    0x2  Code  Gb  stm32f10x_it.o [1]
EXTI2_IRQHandler        0x08000d83    0x2  Code  Gb  stm32f10x_it.o [1]
EXTI3_IRQHandler        0x08000d85    0x2  Code  Gb  stm32f10x_it.o [1]
EXTI4_IRQHandler        0x08000d87    0x2  Code  Gb  stm32f10x_it.o [1]
EXTI9_5_IRQHandler      0x08000da1    0x2  Code  Gb  stm32f10x_it.o [1]
EraseCounter            0x20000028    0x4  Data  Gb  common.o [1]
FLASHStatus             0x2000000a    0x1  Data  Gb  common.o [1]
FLASH_DisableWriteProtectionPages
                        0x080005eb   0x9e  Code  Gb  common.o [1]
FLASH_EnableWriteProtection
                        0x080002b3   0xea  Code  Gb  stm32f10x_flash.o [1]
FLASH_EraseOptionBytes  0x08000165   0xce  Code  Gb  stm32f10x_flash.o [1]
FLASH_ErasePage         0x08000107   0x5e  Code  Gb  stm32f10x_flash.o [1]
FLASH_GetBank1Status    0x08000421   0x2c  Code  Gb  stm32f10x_flash.o [1]
FLASH_GetReadOutProtectionStatus
                        0x0800040d   0x14  Code  Gb  stm32f10x_flash.o [1]
FLASH_GetUserOptionByte
                        0x080003ff    0x8  Code  Gb  stm32f10x_flash.o [1]
FLASH_GetWriteProtectionOptionByte
                        0x08000407    0x6  Code  Gb  stm32f10x_flash.o [1]
FLASH_GetWriteProtectionStatus
                        0x080004e5   0x42  Code  Gb  common.o [1]
FLASH_IRQHandler        0x08000d7b    0x2  Code  Gb  stm32f10x_it.o [1]
FLASH_ProgramWord       0x08000233   0x80  Code  Gb  stm32f10x_flash.o [1]
FLASH_Unlock            0x080000f1   0x16  Code  Gb  stm32f10x_flash.o [1]
FLASH_UserOptionByteConfig
                        0x0800039d   0x62  Code  Gb  stm32f10x_flash.o [1]
FLASH_WaitForLastOperation
                        0x08000489   0x2c  Code  Gb  stm32f10x_flash.o [1]
FlashDestination        0x20000000    0x4  Data  Gb  common.o [1]
FlashProtection         0x20000024    0x4  Data  Gb  common.o [1]
GPIO_Init               0x08000a79   0xc8  Code  Gb  stm32f10x_gpio.o [1]
GPIO_ResetBits          0x08000b47    0x6  Code  Gb  stm32f10x_gpio.o [1]
GPIO_SetBits            0x08000b41    0x6  Code  Gb  stm32f10x_gpio.o [1]
HardFaultException      0x08000d63    0x2  Code  Gb  stm32f10x_it.o [1]
I2C1_ER_IRQHandler      0x08000db3    0x2  Code  Gb  stm32f10x_it.o [1]
I2C1_EV_IRQHandler      0x08000db1    0x2  Code  Gb  stm32f10x_it.o [1]
I2C2_ER_IRQHandler      0x08000db7    0x2  Code  Gb  stm32f10x_it.o [1]
I2C2_EV_IRQHandler      0x08000db5    0x2  Code  Gb  stm32f10x_it.o [1]
IAP_Init                0x08000c19  0x126  Code  Lc  main.o [1]
Internal_Flash_ErasePage
                        0x08000527   0x4c  Code  Gb  common.o [1]
JumpAddress             0x20000018    0x4  Data  Gb  common.o [1]
JumpToApp               0x080004b5   0x30  Code  Gb  common.o [1]
Jump_To_Application     0x20000014    0x4  Data  Gb  common.o [1]
MemManageException      0x08000d65    0x2  Code  Gb  stm32f10x_it.o [1]
NMIException            0x08000d61    0x2  Code  Gb  stm32f10x_it.o [1]
NbrOfPage               0x2000002c    0x4  Data  Gb  common.o [1]
NorFlashAddr            0x20000004    0x4  Data  Gb  common.o [1]
OBD_App_sw_upgrade      0x08000573   0x78  Code  Gb  common.o [1]
PVD_IRQHandler          0x08000d75    0x2  Code  Gb  stm32f10x_it.o [1]
PageSize                0x20000008    0x2  Data  Gb  common.o [1]
PendSVC                 0x08000d6f    0x2  Code  Gb  stm32f10x_it.o [1]
RCC_APB1PeriphClockCmd  0x08000a29   0x20  Code  Gb  stm32f10x_rcc.o [1]
RCC_APB2PeriphClockCmd  0x08000a09   0x20  Code  Gb  stm32f10x_rcc.o [1]
RCC_DeInit              0x08000991   0x78  Code  Gb  stm32f10x_rcc.o [1]
RCC_IRQHandler          0x08000d7d    0x2  Code  Gb  stm32f10x_it.o [1]
RTCAlarm_IRQHandler     0x08000dc5    0x2  Code  Gb  stm32f10x_it.o [1]
RTC_IRQHandler          0x08000d79    0x2  Code  Gb  stm32f10x_it.o [1]
Region$$Table$$Base     0x08000e14          --   Gb  - Linker created -
Region$$Table$$Limit    0x08000e38          --   Gb  - Linker created -
SPI1_IRQHandler         0x08000db9    0x2  Code  Gb  stm32f10x_it.o [1]
SPI2_IRQHandler         0x08000dbb    0x2  Code  Gb  stm32f10x_it.o [1]
SPI_Cmd                 0x08000b8d   0x1c  Code  Gb  stm32f10x_spi.o [1]
SPI_I2S_GetFlagStatus   0x08000bb1   0x14  Code  Gb  stm32f10x_spi.o [1]
SPI_I2S_ReceiveData     0x08000bad    0x4  Code  Gb  stm32f10x_spi.o [1]
SPI_I2S_SendData        0x08000ba9    0x4  Code  Gb  stm32f10x_spi.o [1]
SPI_Init                0x08000b4d   0x40  Code  Gb  stm32f10x_spi.o [1]
SVCHandler              0x08000d6d    0x2  Code  Gb  stm32f10x_it.o [1]
SysTickHandler          0x08000d71    0x2  Code  Gb  stm32f10x_it.o [1]
TAMPER_IRQHandler       0x08000d77    0x2  Code  Gb  stm32f10x_it.o [1]
TIM1_BRK_IRQHandler     0x08000da3    0x2  Code  Gb  stm32f10x_it.o [1]
TIM1_CC_IRQHandler      0x08000da9    0x2  Code  Gb  stm32f10x_it.o [1]
TIM1_TRG_COM_IRQHandler
                        0x08000da7    0x2  Code  Gb  stm32f10x_it.o [1]
TIM1_UP_IRQHandler      0x08000da5    0x2  Code  Gb  stm32f10x_it.o [1]
TIM2_IRQHandler         0x08000dab    0x2  Code  Gb  stm32f10x_it.o [1]
TIM3_IRQHandler         0x08000dad    0x2  Code  Gb  stm32f10x_it.o [1]
TIM4_IRQHandler         0x08000daf    0x2  Code  Gb  stm32f10x_it.o [1]
USART1_IRQHandler       0x08000dbd    0x2  Code  Gb  stm32f10x_it.o [1]
USART2_IRQHandler       0x08000dbf    0x2  Code  Gb  stm32f10x_it.o [1]
USART3_IRQHandler       0x08000dc1    0x2  Code  Gb  stm32f10x_it.o [1]
USBWakeUp_IRQHandler    0x08000dc7    0x2  Code  Gb  stm32f10x_it.o [1]
USB_HP_CAN_TX_IRQHandler
                        0x08000d99    0x2  Code  Gb  stm32f10x_it.o [1]
USB_LP_CAN_RX0_IRQHandler
                        0x08000d9b    0x2  Code  Gb  stm32f10x_it.o [1]
UsageFaultException     0x08000d69    0x2  Code  Gb  stm32f10x_it.o [1]
UserMemoryMask          0x20000020    0x4  Data  Gb  common.o [1]
WWDG_Enable             0x08000a69    0xc  Code  Gb  stm32f10x_wwdg.o [1]
WWDG_IRQHandler         0x08000d73    0x2  Code  Gb  stm32f10x_it.o [1]
__BASEPRICONFIG         0x0800072f         Code  Gb  cortexm3_macro.o [1]
__DMB                   0x080006ed         Code  Gb  cortexm3_macro.o [1]
__DSB                   0x080006e7         Code  Gb  cortexm3_macro.o [1]
__GetBASEPRI            0x08000735         Code  Gb  cortexm3_macro.o [1]
__ISB                   0x080006e1         Code  Gb  cortexm3_macro.o [1]
__MRS_CONTROL           0x080006f7         Code  Gb  cortexm3_macro.o [1]
__MRS_MSP               0x08000713         Code  Gb  cortexm3_macro.o [1]
__MRS_PSP               0x08000707         Code  Gb  cortexm3_macro.o [1]
__MSR_CONTROL           0x080006fd         Code  Gb  cortexm3_macro.o [1]
__MSR_MSP               0x08000719         Code  Gb  cortexm3_macro.o [1]
__MSR_PSP               0x0800070d         Code  Gb  cortexm3_macro.o [1]
__RESETFAULTMASK        0x0800072b         Code  Gb  cortexm3_macro.o [1]
__RESETPRIMASK          0x08000723         Code  Gb  cortexm3_macro.o [1]
__REV_HalfWord          0x0800073b         Code  Gb  cortexm3_macro.o [1]
__REV_Word              0x0800073f         Code  Gb  cortexm3_macro.o [1]
__SETFAULTMASK          0x08000727         Code  Gb  cortexm3_macro.o [1]
__SETPRIMASK            0x0800071f         Code  Gb  cortexm3_macro.o [1]
__SEV                   0x080006dd         Code  Gb  cortexm3_macro.o [1]
__SVC                   0x080006f3         Code  Gb  cortexm3_macro.o [1]
__WFE                   0x080006d9         Code  Gb  cortexm3_macro.o [1]
__WFI                   0x080006d5         Code  Gb  cortexm3_macro.o [1]
__cmain                 0x08000e39         Code  Gb  cmain.o [4]
__exit                  0x08000e69         Code  Gb  XXexit.o [4]
__iar_copy_init3        0x08000743   0x2e  Code  Gb  copy_init3.o [4]
__iar_data_init3        0x08000dc9   0x28  Code  Gb  data_init.o [4]
__iar_program_start     0x08000e75         Code  Gb  cstartup_M.o [4]
__iar_zero_init3        0x08000df1   0x22  Code  Gb  zero_init3.o [4]
__low_level_init        0x08000e53    0x4  Code  Gb  low_level_init.o [3]
__vector_table          0x08000000   0xec  Data  Gb  stm32f10x_vector.o [1]
_call_main              0x08000e45         Code  Gb  cmain.o [4]
_exit                   0x08000e5d         Code  Gb  cexit.o [4]
_main                   0x08000e4f         Code  Gb  cmain.o [4]
exit                    0x08000e57    0x4  Code  Gb  exit.o [3]
main                    0x08000bc5   0x54  Code  Gb  main.o [1]
sFLASH_EraseSector      0x08000841   0x3c  Code  Gb  spi_flash.o [1]
sFLASH_Init             0x080007df   0x62  Code  Gb  spi_flash.o [1]
sFLASH_LowLevel_Init    0x08000771   0x6e  Code  Lc  spi_flash.o [1]
sFLASH_ReadBuffer       0x0800087d   0x4e  Code  Gb  spi_flash.o [1]
sFLASH_ReadID           0x080008cb   0x46  Code  Gb  spi_flash.o [1]
sFLASH_SendByte         0x08000911   0x32  Code  Gb  spi_flash.o [1]
sFLASH_WaitForWriteEnd  0x0800095d   0x2a  Code  Gb  spi_flash.o [1]
sFLASH_WriteEnable      0x08000943   0x1a  Code  Gb  spi_flash.o [1]
sw_infor                0x2000000c    0x8  Data  Gb  common.o [1]


[1] = D:\develop\hw_dr001\bootloader\IAR_STM32_BOOT\Debug\Obj
[2] = command line
[3] = dl7M_tln.a
[4] = rt7M_tl.a

  3 434 bytes of readonly  code memory
    286 bytes of readonly  data memory
  1 071 bytes of readwrite data memory

Errors: none
Warnings: none
